target datalayout = "e-m:e-p270:32:32-p271:32:32-p272:64:64-i64:64-i128:128-f80:128-n8:16:32:64-S128"
target triple = "x86_64-pc-linux-gnu"

%struct.termiosmodulestate = type { ptr }
%struct.winsize = type { i16, i16, i16, i16 }

@PyExc_TypeError = external global ptr, align 8
@.str.17 = private unnamed_addr constant [43 x i8] c"tcsetwinsize expected 2 arguments, got %zd\00", align 1
@.str.18 = private unnamed_addr constant [49 x i8] c"tcsetwinsize, arg 2: must be a two-item sequence\00", align 1
@PyExc_OverflowError = external global ptr, align 8
@.str.19 = private unnamed_addr constant [31 x i8] c"winsize value(s) out of range.\00", align 1

; Function Attrs: inlinehint nounwind uwtable
define internal void @Py_DECREF(ptr noundef %0) #5 {
  %2 = alloca ptr, align 8
  store ptr %0, ptr %2, align 8, !tbaa !3
  %3 = load ptr, ptr %2, align 8, !tbaa !3
  call void @_Py_DecRef(ptr noundef %3)
  ret void
}

; Function Attrs: inlinehint nounwind uwtable
define internal void @Py_XDECREF(ptr noundef %0) #5 {
  %2 = alloca ptr, align 8
  store ptr %0, ptr %2, align 8, !tbaa !3
  %3 = load ptr, ptr %2, align 8, !tbaa !3
  %4 = icmp ne ptr %3, null
  br i1 %4, label %5, label %7

5:                                                ; preds = %1
  %6 = load ptr, ptr %2, align 8, !tbaa !3
  call void @Py_DECREF(ptr noundef %6)
  br label %7

7:                                                ; preds = %5, %1
  ret void
}

; Function Attrs: nounwind uwtable
define internal ptr @termios_tcsetwinsize_impl(ptr noundef %0, i32 noundef %1, ptr noundef %2) #0 {
  %4 = alloca ptr, align 8
  %5 = alloca ptr, align 8
  %6 = alloca i32, align 4
  %7 = alloca ptr, align 8
  %8 = alloca ptr, align 8
  %9 = alloca i64, align 8
  %10 = alloca i64, align 8
  %11 = alloca i32, align 4
  %12 = alloca ptr, align 8
  %13 = alloca %struct.winsize, align 2
  %14 = alloca i32, align 4
  %15 = alloca ptr, align 8
  store ptr %0, ptr %5, align 8, !tbaa !3
  store i32 %1, ptr %6, align 4, !tbaa !11
  store ptr %2, ptr %7, align 8, !tbaa !3
  %16 = load ptr, ptr %7, align 8, !tbaa !3
  %17 = call i32 @PySequence_Check(ptr noundef %16)
  %18 = icmp ne i32 %17, 0
  br i1 %18, label %19, label %23

19:                                               ; preds = %3
  %20 = load ptr, ptr %7, align 8, !tbaa !3
  %21 = call i64 @PySequence_Size(ptr noundef %20)
  %22 = icmp ne i64 %21, 2
  br i1 %22, label %23, label %25

23:                                               ; preds = %19, %3
  %24 = load ptr, ptr @PyExc_TypeError, align 8, !tbaa !3
  call void @PyErr_SetString(ptr noundef %24, ptr noundef @.str.18)
  store ptr null, ptr %4, align 8
  br label %99

25:                                               ; preds = %19
  call void @llvm.lifetime.start.p0(i64 8, ptr %8) #7
  call void @llvm.lifetime.start.p0(i64 8, ptr %9) #7
  call void @llvm.lifetime.start.p0(i64 8, ptr %10) #7
  %26 = load ptr, ptr %7, align 8, !tbaa !3
  %27 = call ptr @PySequence_GetItem(ptr noundef %26, i64 noundef 0)
  store ptr %27, ptr %8, align 8, !tbaa !3
  %28 = load ptr, ptr %8, align 8, !tbaa !3
  %29 = call i64 @PyLong_AsLong(ptr noundef %28)
  store i64 %29, ptr %9, align 8, !tbaa !15
  %30 = load i64, ptr %9, align 8, !tbaa !15
  %31 = icmp eq i64 %30, -1
  br i1 %31, label %32, label %37

32:                                               ; preds = %25
  %33 = call ptr @PyErr_Occurred()
  %34 = icmp ne ptr %33, null
  br i1 %34, label %35, label %37

35:                                               ; preds = %32
  %36 = load ptr, ptr %8, align 8, !tbaa !3
  call void @Py_XDECREF(ptr noundef %36)
  store ptr null, ptr %4, align 8
  store i32 1, ptr %11, align 4
  br label %98

37:                                               ; preds = %32, %25
  %38 = load ptr, ptr %8, align 8, !tbaa !3
  call void @Py_XDECREF(ptr noundef %38)
  %39 = load ptr, ptr %7, align 8, !tbaa !3
  %40 = call ptr @PySequence_GetItem(ptr noundef %39, i64 noundef 1)
  store ptr %40, ptr %8, align 8, !tbaa !3
  %41 = load ptr, ptr %8, align 8, !tbaa !3
  %42 = call i64 @PyLong_AsLong(ptr noundef %41)
  store i64 %42, ptr %10, align 8, !tbaa !15
  %43 = load i64, ptr %10, align 8, !tbaa !15
  %44 = icmp eq i64 %43, -1
  br i1 %44, label %45, label %50

45:                                               ; preds = %37
  %46 = call ptr @PyErr_Occurred()
  %47 = icmp ne ptr %46, null
  br i1 %47, label %48, label %50

48:                                               ; preds = %45
  %49 = load ptr, ptr %8, align 8, !tbaa !3
  call void @Py_XDECREF(ptr noundef %49)
  store ptr null, ptr %4, align 8
  store i32 1, ptr %11, align 4
  br label %98

50:                                               ; preds = %45, %37
  %51 = load ptr, ptr %8, align 8, !tbaa !3
  call void @Py_XDECREF(ptr noundef %51)
  call void @llvm.lifetime.start.p0(i64 8, ptr %12) #7
  %52 = load ptr, ptr %5, align 8, !tbaa !3
  %53 = call ptr @PyModule_GetState(ptr noundef %52)
  store ptr %53, ptr %12, align 8, !tbaa !8
  call void @llvm.lifetime.start.p0(i64 8, ptr %13) #7
  %54 = load i32, ptr %6, align 4, !tbaa !11
  %55 = call i32 (i32, i64, ...) @ioctl(i32 noundef %54, i64 noundef 21523, ptr noundef %13) #7
  %56 = icmp eq i32 %55, -1
  br i1 %56, label %57, label %62

57:                                               ; preds = %50
  %58 = load ptr, ptr %12, align 8, !tbaa !8
  %59 = getelementptr inbounds nuw %struct.termiosmodulestate, ptr %58, i32 0, i32 0
  %60 = load ptr, ptr %59, align 8, !tbaa !9
  %61 = call ptr @PyErr_SetFromErrno(ptr noundef %60)
  store ptr %61, ptr %4, align 8
  store i32 1, ptr %11, align 4
  br label %97

62:                                               ; preds = %50
  %63 = load i64, ptr %9, align 8, !tbaa !15
  %64 = trunc i64 %63 to i16
  %65 = getelementptr inbounds nuw %struct.winsize, ptr %13, i32 0, i32 0
  store i16 %64, ptr %65, align 2, !tbaa !32
  %66 = load i64, ptr %10, align 8, !tbaa !15
  %67 = trunc i64 %66 to i16
  %68 = getelementptr inbounds nuw %struct.winsize, ptr %13, i32 0, i32 1
  store i16 %67, ptr %68, align 2, !tbaa !35
  %69 = getelementptr inbounds nuw %struct.winsize, ptr %13, i32 0, i32 0
  %70 = load i16, ptr %69, align 2, !tbaa !32
  %71 = zext i16 %70 to i64
  %72 = load i64, ptr %9, align 8, !tbaa !15
  %73 = icmp ne i64 %71, %72
  br i1 %73, label %80, label %74

74:                                               ; preds = %62
  %75 = getelementptr inbounds nuw %struct.winsize, ptr %13, i32 0, i32 1
  %76 = load i16, ptr %75, align 2, !tbaa !35
  %77 = zext i16 %76 to i64
  %78 = load i64, ptr %10, align 8, !tbaa !15
  %79 = icmp ne i64 %77, %78
  br i1 %79, label %80, label %82

80:                                               ; preds = %74, %62
  %81 = load ptr, ptr @PyExc_OverflowError, align 8, !tbaa !3
  call void @PyErr_SetString(ptr noundef %81, ptr noundef @.str.19)
  store ptr null, ptr %4, align 8
  store i32 1, ptr %11, align 4
  br label %97

82:                                               ; preds = %74
  call void @llvm.lifetime.start.p0(i64 4, ptr %14) #7
  call void @llvm.lifetime.start.p0(i64 8, ptr %15) #7
  %83 = call ptr @PyEval_SaveThread()
  store ptr %83, ptr %15, align 8, !tbaa !17
  %84 = load i32, ptr %6, align 4, !tbaa !11
  %85 = call i32 (i32, i64, ...) @ioctl(i32 noundef %84, i64 noundef 21524, ptr noundef %13) #7
  store i32 %85, ptr %14, align 4, !tbaa !11
  %86 = load ptr, ptr %15, align 8, !tbaa !17
  call void @PyEval_RestoreThread(ptr noundef %86)
  call void @llvm.lifetime.end.p0(i64 8, ptr %15) #7
  %87 = load i32, ptr %14, align 4, !tbaa !11
  %88 = icmp eq i32 %87, -1
  br i1 %88, label %89, label %94

89:                                               ; preds = %82
  %90 = load ptr, ptr %12, align 8, !tbaa !8
  %91 = getelementptr inbounds nuw %struct.termiosmodulestate, ptr %90, i32 0, i32 0
  %92 = load ptr, ptr %91, align 8, !tbaa !9
  %93 = call ptr @PyErr_SetFromErrno(ptr noundef %92)
  store ptr %93, ptr %4, align 8
  store i32 1, ptr %11, align 4
  br label %96

94:                                               ; preds = %82
  %95 = call ptr @Py_GetConstantBorrowed(i32 noundef 0)
  store ptr %95, ptr %4, align 8
  store i32 1, ptr %11, align 4
  br label %96

96:                                               ; preds = %94, %89
  call void @llvm.lifetime.end.p0(i64 4, ptr %14) #7
  br label %97

97:                                               ; preds = %96, %80, %57
  call void @llvm.lifetime.end.p0(i64 8, ptr %13) #7
  call void @llvm.lifetime.end.p0(i64 8, ptr %12) #7
  br label %98

98:                                               ; preds = %97, %48, %35
  call void @llvm.lifetime.end.p0(i64 8, ptr %10) #7
  call void @llvm.lifetime.end.p0(i64 8, ptr %9) #7
  call void @llvm.lifetime.end.p0(i64 8, ptr %8) #7
  br label %99

99:                                               ; preds = %98, %23
  %100 = load ptr, ptr %4, align 8
  ret ptr %100
}

; Function Attrs: nounwind uwtable
define internal ptr @termios_tcsetwinsize(ptr noundef %0, ptr noundef %1, i64 noundef %2) #0 {
  %4 = alloca ptr, align 8
  %5 = alloca ptr, align 8
  %6 = alloca i64, align 8
  %7 = alloca ptr, align 8
  %8 = alloca i32, align 4
  %9 = alloca ptr, align 8
  store ptr %0, ptr %4, align 8, !tbaa !3
  store ptr %1, ptr %5, align 8, !tbaa !13
  store i64 %2, ptr %6, align 8, !tbaa !15
  call void @llvm.lifetime.start.p0(i64 8, ptr %7) #7
  store ptr null, ptr %7, align 8, !tbaa !3
  call void @llvm.lifetime.start.p0(i64 4, ptr %8) #7
  call void @llvm.lifetime.start.p0(i64 8, ptr %9) #7
  %10 = load i64, ptr %6, align 8, !tbaa !15
  %11 = icmp ne i64 %10, 2
  br i1 %11, label %12, label %16

12:                                               ; preds = %3
  %13 = load ptr, ptr @PyExc_TypeError, align 8, !tbaa !3
  %14 = load i64, ptr %6, align 8, !tbaa !15
  %15 = call ptr (ptr, ptr, ...) @PyErr_Format(ptr noundef %13, ptr noundef @.str.17, i64 noundef %14)
  br label %32

16:                                               ; preds = %3
  %17 = load ptr, ptr %5, align 8, !tbaa !13
  %18 = getelementptr ptr, ptr %17, i64 0
  %19 = load ptr, ptr %18, align 8, !tbaa !3
  %20 = call i32 @PyObject_AsFileDescriptor(ptr noundef %19)
  store i32 %20, ptr %8, align 4, !tbaa !11
  %21 = load i32, ptr %8, align 4, !tbaa !11
  %22 = icmp slt i32 %21, 0
  br i1 %22, label %23, label %24

23:                                               ; preds = %16
  br label %32

24:                                               ; preds = %16
  %25 = load ptr, ptr %5, align 8, !tbaa !13
  %26 = getelementptr ptr, ptr %25, i64 1
  %27 = load ptr, ptr %26, align 8, !tbaa !3
  store ptr %27, ptr %9, align 8, !tbaa !3
  %28 = load ptr, ptr %4, align 8, !tbaa !3
  %29 = load i32, ptr %8, align 4, !tbaa !11
  %30 = load ptr, ptr %9, align 8, !tbaa !3
  %31 = call ptr @termios_tcsetwinsize_impl(ptr noundef %28, i32 noundef %29, ptr noundef %30)
  store ptr %31, ptr %7, align 8, !tbaa !3
  br label %32

32:                                               ; preds = %24, %23, %12
  %33 = load ptr, ptr %7, align 8, !tbaa !3
  call void @llvm.lifetime.end.p0(i64 8, ptr %9) #7
  call void @llvm.lifetime.end.p0(i64 4, ptr %8) #7
  call void @llvm.lifetime.end.p0(i64 8, ptr %7) #7
  ret ptr %33
}