; Function Attrs: nounwind uwtable
define internal ptr @termios_tcsetwinsize(ptr noundef %0, ptr noundef readonly captures(none) %1, i64 noundef %2) #0 {
  %4 = alloca %struct.winsize, align 2
  %.not = icmp eq i64 %2, 2
  br i1 %.not, label %8, label %5

5:                                                ; preds = %3
  %6 = load ptr, ptr @PyExc_TypeError, align 8, !tbaa !9
  %7 = tail call ptr (ptr, ptr, ...) @PyErr_Format(ptr noundef %6, ptr noundef nonnull @.str.17, i64 noundef %2) #5
  br label %termios_tcsetwinsize_impl.exit

8:                                                ; preds = %3
  %9 = load ptr, ptr %1, align 8, !tbaa !9
  %10 = tail call i32 @PyObject_AsFileDescriptor(ptr noundef %9) #5
  %11 = icmp slt i32 %10, 0
  br i1 %11, label %termios_tcsetwinsize_impl.exit, label %12

12:                                               ; preds = %8
  %13 = getelementptr i8, ptr %1, i64 8
  %14 = load ptr, ptr %13, align 8, !tbaa !9
  %15 = tail call i32 @PySequence_Check(ptr noundef %14) #5
  %.not.i = icmp eq i32 %15, 0
  br i1 %.not.i, label %18, label %16

16:                                               ; preds = %12
  %17 = tail call i64 @PySequence_Size(ptr noundef %14) #5
  %.not23.i = icmp eq i64 %17, 2
  br i1 %.not23.i, label %20, label %18

18:                                               ; preds = %16, %12
  %19 = load ptr, ptr @PyExc_TypeError, align 8, !tbaa !9
  tail call void @PyErr_SetString(ptr noundef %19, ptr noundef nonnull @.str.18) #5
  br label %termios_tcsetwinsize_impl.exit

20:                                               ; preds = %16
  %21 = tail call ptr @PySequence_GetItem(ptr noundef %14, i64 noundef 0) #5
  %22 = tail call i64 @PyLong_AsLong(ptr noundef %21) #5
  %23 = icmp eq i64 %22, -1
  br i1 %23, label %24, label %28

24:                                               ; preds = %20
  %25 = tail call ptr @PyErr_Occurred() #5
  %.not24.i = icmp eq ptr %25, null
  br i1 %.not24.i, label %28, label %26

26:                                               ; preds = %24
  %.not.i.i = icmp eq ptr %21, null
  br i1 %.not.i.i, label %termios_tcsetwinsize_impl.exit, label %27

27:                                               ; preds = %26
  tail call void @_Py_DecRef(ptr noundef nonnull %21) #5
  br label %termios_tcsetwinsize_impl.exit

28:                                               ; preds = %24, %20
  %.not.i28.i = icmp eq ptr %21, null
  br i1 %.not.i28.i, label %Py_XDECREF.exit29.i, label %29

29:                                               ; preds = %28
  tail call void @_Py_DecRef(ptr noundef nonnull %21) #5
  br label %Py_XDECREF.exit29.i

Py_XDECREF.exit29.i:                              ; preds = %29, %28
  %30 = tail call ptr @PySequence_GetItem(ptr noundef %14, i64 noundef 1) #5
  %31 = tail call i64 @PyLong_AsLong(ptr noundef %30) #5
  %32 = icmp eq i64 %31, -1
  br i1 %32, label %33, label %37

33:                                               ; preds = %Py_XDECREF.exit29.i
  %34 = tail call ptr @PyErr_Occurred() #5
  %.not25.i = icmp eq ptr %34, null
  br i1 %.not25.i, label %37, label %35

35:                                               ; preds = %33
  %.not.i30.i = icmp eq ptr %30, null
  br i1 %.not.i30.i, label %termios_tcsetwinsize_impl.exit, label %36

36:                                               ; preds = %35
  tail call void @_Py_DecRef(ptr noundef nonnull %30) #5
  br label %termios_tcsetwinsize_impl.exit

37:                                               ; preds = %33, %Py_XDECREF.exit29.i
  %.not.i32.i = icmp eq ptr %30, null
  br i1 %.not.i32.i, label %Py_XDECREF.exit33.i, label %38

38:                                               ; preds = %37
  tail call void @_Py_DecRef(ptr noundef nonnull %30) #5
  br label %Py_XDECREF.exit33.i

Py_XDECREF.exit33.i:                              ; preds = %38, %37
  %39 = tail call ptr @PyModule_GetState(ptr noundef %0) #5
  call void @llvm.lifetime.start.p0(i64 8, ptr nonnull %4) #5
  %40 = call i32 (i32, i64, ...) @ioctl(i32 noundef range(i32 0, -2147483648) %10, i64 noundef 21523, ptr noundef nonnull %4) #5
  %41 = icmp eq i32 %40, -1
  br i1 %41, label %42, label %45

42:                                               ; preds = %Py_XDECREF.exit33.i
  %43 = load ptr, ptr %39, align 8, !tbaa !3
  %44 = call ptr @PyErr_SetFromErrno(ptr noundef %43) #5
  br label %61

45:                                               ; preds = %Py_XDECREF.exit33.i
  %46 = trunc i64 %22 to i16
  store i16 %46, ptr %4, align 2, !tbaa !19
  %47 = trunc i64 %31 to i16
  %48 = getelementptr inbounds nuw i8, ptr %4, i64 2
  store i16 %47, ptr %48, align 2, !tbaa !22
  %49 = or i64 %31, %22
  %or.cond.i = icmp ult i64 %49, 65536
  br i1 %or.cond.i, label %52, label %50

50:                                               ; preds = %45
  %51 = load ptr, ptr @PyExc_OverflowError, align 8, !tbaa !9
  call void @PyErr_SetString(ptr noundef %51, ptr noundef nonnull @.str.19) #5
  br label %61

52:                                               ; preds = %45
  %53 = call ptr @PyEval_SaveThread() #5
  %54 = call i32 (i32, i64, ...) @ioctl(i32 noundef range(i32 0, -2147483648) %10, i64 noundef 21524, ptr noundef nonnull %4) #5
  call void @PyEval_RestoreThread(ptr noundef %53) #5
  %55 = icmp eq i32 %54, -1
  br i1 %55, label %56, label %59

56:                                               ; preds = %52
  %57 = load ptr, ptr %39, align 8, !tbaa !3
  %58 = call ptr @PyErr_SetFromErrno(ptr noundef %57) #5
  br label %61

59:                                               ; preds = %52
  %60 = call ptr @Py_GetConstantBorrowed(i32 noundef 0) #5
  br label %61

61:                                               ; preds = %59, %56, %50, %42
  %.2.i = phi ptr [ %44, %42 ], [ null, %50 ], [ %58, %56 ], [ %60, %59 ]
  call void @llvm.lifetime.end.p0(i64 8, ptr nonnull %4) #5
  br label %termios_tcsetwinsize_impl.exit

termios_tcsetwinsize_impl.exit:                   ; preds = %61, %36, %35, %27, %26, %18, %8, %5
  %.0 = phi ptr [ null, %5 ], [ null, %8 ], [ null, %18 ], [ %.2.i, %61 ], [ null, %26 ], [ null, %27 ], [ null, %35 ], [ null, %36 ]
  ret ptr %.0
}